; Function Attrs: nounwind uwtable
define range(i32 -1, 1) i32 @H5ESregister_complete_func(i64 noundef %0, ptr noundef %1, ptr noundef %2) local_unnamed_addr #0 {
  %4 = alloca %struct.H5CX_node_t, align 8
  call void @llvm.lifetime.start.p0(i64 480, ptr nonnull %4) #4
  call void @llvm.memset.p0.i64(ptr noundef nonnull align 8 dereferenceable(480) %4, i8 0, i64 480, i1 false)
  %5 = load i8, ptr @H5_libinit_g, align 1, !tbaa !3, !range !7, !noundef !8
  %6 = trunc nuw i8 %5 to i1
  %7 = load i8, ptr @H5_libterm_g, align 1, !range !7
  %8 = trunc nuw i8 %7 to i1
  %9 = select i1 %6, i1 true, i1 %8
  br i1 %9, label %17, label %10, !prof !9

10:                                               ; preds = %3
  %11 = tail call i32 @H5_init_library() #4
  %12 = icmp slt i32 %11, 0
  br i1 %12, label %13, label %._crit_edge, !prof !10

._crit_edge:                                      ; preds = %10
  %.pre = load i8, ptr @H5_libterm_g, align 1, !range !7
  br label %17

13:                                               ; preds = %10
  %14 = load i64, ptr @H5E_FUNC_g, align 8, !tbaa !11
  %15 = load i64, ptr @H5E_CANTINIT_g, align 8, !tbaa !11
  %16 = tail call i32 (ptr, ptr, i32, i64, i64, ptr, ...) @H5E_printf_stack(ptr noundef nonnull @.str, ptr noundef nonnull @__func__.H5ESregister_complete_func, i32 noundef 574, i64 noundef %14, i64 noundef %15, ptr noundef nonnull @.str.1) #4
  br label %.thread32

17:                                               ; preds = %._crit_edge, %3
  %18 = phi i8 [ %.pre, %._crit_edge ], [ %7, %3 ]
  %19 = load i8, ptr @H5ES_init_g, align 1, !tbaa !3, !range !7, !noundef !8
  %20 = trunc nuw i8 %19 to i1
  %21 = trunc nuw i8 %18 to i1
  %22 = select i1 %20, i1 true, i1 %21
  br i1 %22, label %30, label %23, !prof !9

23:                                               ; preds = %17
  store i8 1, ptr @H5ES_init_g, align 1, !tbaa !3
  %24 = tail call i32 @H5ES__init_package() #4
  %25 = icmp slt i32 %24, 0
  br i1 %25, label %26, label %30, !prof !13

26:                                               ; preds = %23
  store i8 0, ptr @H5ES_init_g, align 1, !tbaa !3
  %27 = load i64, ptr @H5E_FUNC_g, align 8, !tbaa !11
  %28 = load i64, ptr @H5E_CANTINIT_g, align 8, !tbaa !11
  %29 = tail call i32 (ptr, ptr, i32, i64, i64, ptr, ...) @H5E_printf_stack(ptr noundef nonnull @.str, ptr noundef nonnull @__func__.H5ESregister_complete_func, i32 noundef 574, i64 noundef %27, i64 noundef %28, ptr noundef nonnull @.str.2) #4
  br label %.thread32

30:                                               ; preds = %17, %23
  %31 = call i32 @H5CX_push(ptr noundef nonnull %4) #4
  %32 = icmp slt i32 %31, 0
  br i1 %32, label %33, label %37, !prof !10

33:                                               ; preds = %30
  %34 = load i64, ptr @H5E_FUNC_g, align 8, !tbaa !11
  %35 = load i64, ptr @H5E_CANTSET_g, align 8, !tbaa !11
  %36 = call i32 (ptr, ptr, i32, i64, i64, ptr, ...) @H5E_printf_stack(ptr noundef nonnull @.str, ptr noundef nonnull @__func__.H5ESregister_complete_func, i32 noundef 574, i64 noundef %34, i64 noundef %35, ptr noundef nonnull @.str.3) #4
  br label %.thread32

37:                                               ; preds = %30
  %38 = call i32 @H5E_clear_stack() #4
  %.not = icmp eq i64 %0, 0
  br i1 %.not, label %56, label %39

39:                                               ; preds = %37
  %40 = call ptr @H5I_object_verify(i64 noundef %0, i32 noundef 16) #4
  %41 = icmp eq ptr %40, null
  br i1 %41, label %42, label %46

42:                                               ; preds = %39
  %43 = load i64, ptr @H5E_ARGS_g, align 8, !tbaa !11
  %44 = load i64, ptr @H5E_BADTYPE_g, align 8, !tbaa !11
  %45 = call i32 (ptr, ptr, i32, i64, i64, ptr, ...) @H5E_printf_stack(ptr noundef nonnull @.str, ptr noundef nonnull @__func__.H5ESregister_complete_func, i32 noundef 582, i64 noundef %43, i64 noundef %44, ptr noundef nonnull @.str.6) #4
  br label %.thread37

46:                                               ; preds = %39
  %47 = icmp eq ptr %1, null
  br i1 %47, label %48, label %52

48:                                               ; preds = %46
  %49 = load i64, ptr @H5E_ARGS_g, align 8, !tbaa !11
  %50 = load i64, ptr @H5E_BADVALUE_g, align 8, !tbaa !11
  %51 = call i32 (ptr, ptr, i32, i64, i64, ptr, ...) @H5E_printf_stack(ptr noundef nonnull @.str, ptr noundef nonnull @__func__.H5ESregister_complete_func, i32 noundef 584, i64 noundef %49, i64 noundef %50, ptr noundef nonnull @.str.22) #4
  br label %.thread37

52:                                               ; preds = %46
  %53 = getelementptr inbounds nuw i8, ptr %40, i64 24
  store ptr %1, ptr %53, align 8, !tbaa !33
  %54 = getelementptr inbounds nuw i8, ptr %40, i64 32
  store ptr %2, ptr %54, align 8, !tbaa !34
  br label %56

.thread37:                                        ; preds = %48, %42
  %55 = call i32 @H5CX_pop(i1 noundef zeroext true) #4
  br label %.thread32

56:                                               ; preds = %52, %37
  %57 = call i32 @H5CX_pop(i1 noundef zeroext true) #4
  br label %59

.thread32:                                        ; preds = %33, %26, %13, %.thread37
  %58 = call i32 @H5E_dump_api_stack() #4
  br label %59

59:                                               ; preds = %56, %.thread32
  %.016 = phi i32 [ -1, %.thread32 ], [ 0, %56 ]
  call void @llvm.lifetime.end.p0(i64 480, ptr nonnull %4) #4
  ret i32 %.016
}